#include <math.h>
#include <stdio.h>
#include <stdlib.h>
#include <string.h>

int main()
{
  int a,b,c,i,k,n,m;
  a=1;
  b=1;
  scanf("%d\n",&n);
  int u[n];
  for(i=1;i<=n;i++)
  {scanf("%d\n",&m);
  if(m<=2) c=1;
  else   a=1;b=1; for(k=3;k<=m;k++)
     {
      c=a+b;
      a=b;
       b=c;
  }
   u[i]=c;
  }
  for(i=1;i<=n;i++)
	  printf("%d\n",u[i]);
   
  return 0;
}
