; ModuleID = '61/186.c'
source_filename = "61/186.c"
target datalayout = "e-m:e-p270:32:32-p271:32:32-p272:64:64-i64:64-f80:128-n8:16:32:64-S128"
target triple = "x86_64-pc-linux-gnu"

@.str = private unnamed_addr constant [4 x i8] c"%d\0A\00", align 1

; Function Attrs: noinline nounwind uwtable
define dso_local i32 @main() #0 {
  %1 = alloca i32, align 4
  %2 = alloca i32, align 4
  %3 = alloca i32, align 4
  %4 = alloca i32, align 4
  %5 = alloca i32, align 4
  %6 = alloca i32, align 4
  %7 = alloca i32, align 4
  %8 = alloca i32, align 4
  %9 = alloca i8*, align 8
  %10 = alloca i64, align 8
  store i32 0, i32* %1, align 4
  store i32 1, i32* %2, align 4
  store i32 1, i32* %3, align 4
  %11 = call i32 (i8*, ...) @__isoc99_scanf(i8* getelementptr inbounds ([4 x i8], [4 x i8]* @.str, i64 0, i64 0), i32* %7)
  %12 = load i32, i32* %7, align 4
  %13 = zext i32 %12 to i64
  %14 = call i8* @llvm.stacksave()
  store i8* %14, i8** %9, align 8
  %15 = alloca i32, i64 %13, align 16
  store i64 %13, i64* %10, align 8
  store i32 1, i32* %5, align 4
  br label %16

16:                                               ; preds = %45, %0
  %17 = load i32, i32* %5, align 4
  %18 = load i32, i32* %7, align 4
  %19 = icmp sle i32 %17, %18
  br i1 %19, label %20, label %48

20:                                               ; preds = %16
  %21 = call i32 (i8*, ...) @__isoc99_scanf(i8* getelementptr inbounds ([4 x i8], [4 x i8]* @.str, i64 0, i64 0), i32* %8)
  %22 = load i32, i32* %8, align 4
  %23 = icmp sle i32 %22, 2
  br i1 %23, label %24, label %25

24:                                               ; preds = %20
  store i32 1, i32* %4, align 4
  br label %26

25:                                               ; preds = %20
  store i32 1, i32* %2, align 4
  br label %26

26:                                               ; preds = %25, %24
  store i32 1, i32* %3, align 4
  store i32 3, i32* %6, align 4
  br label %27

27:                                               ; preds = %37, %26
  %28 = load i32, i32* %6, align 4
  %29 = load i32, i32* %8, align 4
  %30 = icmp sle i32 %28, %29
  br i1 %30, label %31, label %40

31:                                               ; preds = %27
  %32 = load i32, i32* %2, align 4
  %33 = load i32, i32* %3, align 4
  %34 = add nsw i32 %32, %33
  store i32 %34, i32* %4, align 4
  %35 = load i32, i32* %3, align 4
  store i32 %35, i32* %2, align 4
  %36 = load i32, i32* %4, align 4
  store i32 %36, i32* %3, align 4
  br label %37

37:                                               ; preds = %31
  %38 = load i32, i32* %6, align 4
  %39 = add nsw i32 %38, 1
  store i32 %39, i32* %6, align 4
  br label %27

40:                                               ; preds = %27
  %41 = load i32, i32* %4, align 4
  %42 = load i32, i32* %5, align 4
  %43 = sext i32 %42 to i64
  %44 = getelementptr inbounds i32, i32* %15, i64 %43
  store i32 %41, i32* %44, align 4
  br label %45

45:                                               ; preds = %40
  %46 = load i32, i32* %5, align 4
  %47 = add nsw i32 %46, 1
  store i32 %47, i32* %5, align 4
  br label %16

48:                                               ; preds = %16
  store i32 1, i32* %5, align 4
  br label %49

49:                                               ; preds = %59, %48
  %50 = load i32, i32* %5, align 4
  %51 = load i32, i32* %7, align 4
  %52 = icmp sle i32 %50, %51
  br i1 %52, label %53, label %62

53:                                               ; preds = %49
  %54 = load i32, i32* %5, align 4
  %55 = sext i32 %54 to i64
  %56 = getelementptr inbounds i32, i32* %15, i64 %55
  %57 = load i32, i32* %56, align 4
  %58 = call i32 (i8*, ...) @printf(i8* getelementptr inbounds ([4 x i8], [4 x i8]* @.str, i64 0, i64 0), i32 %57)
  br label %59

59:                                               ; preds = %53
  %60 = load i32, i32* %5, align 4
  %61 = add nsw i32 %60, 1
  store i32 %61, i32* %5, align 4
  br label %49

62:                                               ; preds = %49
  store i32 0, i32* %1, align 4
  %63 = load i8*, i8** %9, align 8
  call void @llvm.stackrestore(i8* %63)
  %64 = load i32, i32* %1, align 4
  ret i32 %64
}

declare dso_local i32 @__isoc99_scanf(i8*, ...) #1

; Function Attrs: nounwind
declare i8* @llvm.stacksave() #2

declare dso_local i32 @printf(i8*, ...) #1

; Function Attrs: nounwind
declare void @llvm.stackrestore(i8*) #2


!llvm.module.flags = !{!0}
!llvm.ident = !{!1}

!0 = !{i32 1, !"wchar_size", i32 4}
!1 = !{!"clang version 10.0.0-4ubuntu1 "}
