; ModuleID = 'source-C-CXX/60/186.c'
source_filename = "source-C-CXX/60/186.c"
target datalayout = "e-m:e-p270:32:32-p271:32:32-p272:64:64-i64:64-f80:128-n8:16:32:64-S128"
target triple = "x86_64-pc-linux-gnu"

@.str = private unnamed_addr constant [4 x i8] c"%d\0A\00", align 1

; Function Attrs: nofree nounwind sspstrong uwtable
define dso_local i32 @main() local_unnamed_addr #0 {
  %1 = alloca i32, align 4
  %2 = alloca i32, align 4
  %3 = bitcast i32* %1 to i8*
  call void @llvm.lifetime.start.p0i8(i64 4, i8* nonnull %3) #4
  %4 = bitcast i32* %2 to i8*
  call void @llvm.lifetime.start.p0i8(i64 4, i8* nonnull %4) #4
  %5 = call i32 (i8*, ...) @__isoc99_scanf(i8* getelementptr inbounds ([4 x i8], [4 x i8]* @.str, i64 0, i64 0), i32* nonnull %1)
  %6 = load i32, i32* %1, align 4, !tbaa !5
  %7 = zext i32 %6 to i64
  %8 = call i8* @llvm.stacksave()
  %9 = alloca i32, i64 %7, align 16
  %10 = load i32, i32* %1, align 4, !tbaa !5
  %11 = icmp slt i32 %10, 1
  br i1 %11, label %68, label %14

12:                                               ; preds = %52
  %13 = icmp slt i32 %56, 1
  br i1 %13, label %68, label %59

14:                                               ; preds = %0, %52
  %15 = phi i64 [ %55, %52 ], [ 1, %0 ]
  %16 = call i32 (i8*, ...) @__isoc99_scanf(i8* getelementptr inbounds ([4 x i8], [4 x i8]* @.str, i64 0, i64 0), i32* nonnull %2)
  %17 = load i32, i32* %2, align 4, !tbaa !5
  %18 = icmp slt i32 %17, 3
  br i1 %18, label %52, label %19

19:                                               ; preds = %14
  %20 = add i32 %17, -2
  %21 = add i32 %17, -3
  %22 = and i32 %20, 7
  %23 = icmp ult i32 %21, 7
  br i1 %23, label %40, label %24

24:                                               ; preds = %19
  %25 = and i32 %20, -8
  br label %26

26:                                               ; preds = %26, %24
  %27 = phi i32 [ 1, %24 ], [ %36, %26 ]
  %28 = phi i32 [ 1, %24 ], [ %37, %26 ]
  %29 = phi i32 [ %25, %24 ], [ %38, %26 ]
  %30 = add nsw i32 %27, %28
  %31 = add nsw i32 %28, %30
  %32 = add nsw i32 %30, %31
  %33 = add nsw i32 %31, %32
  %34 = add nsw i32 %32, %33
  %35 = add nsw i32 %33, %34
  %36 = add nsw i32 %34, %35
  %37 = add nsw i32 %35, %36
  %38 = add i32 %29, -8
  %39 = icmp eq i32 %38, 0
  br i1 %39, label %40, label %26, !llvm.loop !9

40:                                               ; preds = %26, %19
  %41 = phi i32 [ undef, %19 ], [ %37, %26 ]
  %42 = phi i32 [ 1, %19 ], [ %36, %26 ]
  %43 = phi i32 [ 1, %19 ], [ %37, %26 ]
  %44 = icmp eq i32 %22, 0
  br i1 %44, label %52, label %45

45:                                               ; preds = %40, %45
  %46 = phi i32 [ %47, %45 ], [ %42, %40 ]
  %47 = phi i32 [ %49, %45 ], [ %43, %40 ]
  %48 = phi i32 [ %50, %45 ], [ %22, %40 ]
  %49 = add nsw i32 %46, %47
  %50 = add i32 %48, -1
  %51 = icmp eq i32 %50, 0
  br i1 %51, label %52, label %45, !llvm.loop !11

52:                                               ; preds = %40, %45, %14
  %53 = phi i32 [ 1, %14 ], [ %41, %40 ], [ %49, %45 ]
  %54 = getelementptr inbounds i32, i32* %9, i64 %15
  store i32 %53, i32* %54, align 4, !tbaa !5
  %55 = add nuw nsw i64 %15, 1
  %56 = load i32, i32* %1, align 4, !tbaa !5
  %57 = sext i32 %56 to i64
  %58 = icmp slt i64 %15, %57
  br i1 %58, label %14, label %12, !llvm.loop !13

59:                                               ; preds = %12, %59
  %60 = phi i64 [ %64, %59 ], [ 1, %12 ]
  %61 = getelementptr inbounds i32, i32* %9, i64 %60
  %62 = load i32, i32* %61, align 4, !tbaa !5
  %63 = call i32 (i8*, ...) @printf(i8* nonnull dereferenceable(1) getelementptr inbounds ([4 x i8], [4 x i8]* @.str, i64 0, i64 0), i32 %62)
  %64 = add nuw nsw i64 %60, 1
  %65 = load i32, i32* %1, align 4, !tbaa !5
  %66 = sext i32 %65 to i64
  %67 = icmp slt i64 %60, %66
  br i1 %67, label %59, label %68, !llvm.loop !14

68:                                               ; preds = %59, %0, %12
  call void @llvm.stackrestore(i8* %8)
  call void @llvm.lifetime.end.p0i8(i64 4, i8* nonnull %4) #4
  call void @llvm.lifetime.end.p0i8(i64 4, i8* nonnull %3) #4
  ret i32 0
}

; Function Attrs: argmemonly mustprogress nofree nosync nounwind willreturn
declare void @llvm.lifetime.start.p0i8(i64 immarg, i8* nocapture) #1

; Function Attrs: nofree nounwind
declare noundef i32 @__isoc99_scanf(i8* nocapture noundef readonly, ...) local_unnamed_addr #2

; Function Attrs: mustprogress nofree nosync nounwind willreturn
declare i8* @llvm.stacksave() #3

; Function Attrs: nofree nounwind
declare noundef i32 @printf(i8* nocapture noundef readonly, ...) local_unnamed_addr #2

; Function Attrs: mustprogress nofree nosync nounwind willreturn
declare void @llvm.stackrestore(i8*) #3

; Function Attrs: argmemonly mustprogress nofree nosync nounwind willreturn
declare void @llvm.lifetime.end.p0i8(i64 immarg, i8* nocapture) #1


!llvm.module.flags = !{!0, !1, !2, !3}
!llvm.ident = !{!4}

!0 = !{i32 1, !"wchar_size", i32 4}
!1 = !{i32 7, !"PIC Level", i32 2}
!2 = !{i32 7, !"PIE Level", i32 2}
!3 = !{i32 7, !"uwtable", i32 1}
!4 = !{!"clang version 13.0.0"}
!5 = !{!6, !6, i64 0}
!6 = !{!"int", !7, i64 0}
!7 = !{!"omnipotent char", !8, i64 0}
!8 = !{!"Simple C/C++ TBAA"}
!9 = distinct !{!9, !10}
!10 = !{!"llvm.loop.mustprogress"}
!11 = distinct !{!11, !12}
!12 = !{!"llvm.loop.unroll.disable"}
!13 = distinct !{!13, !10}
!14 = distinct !{!14, !10}
